; Function Attrs: mustprogress nofree norecurse nosync nounwind willreturn memory(argmem: write) uwtable
define void @_ZN5faiss11IndexRefineC2Ev(ptr nocapture noundef nonnull writeonly align 8 dereferenceable(64) %0) unnamed_addr #5 align 2 {
  %2 = getelementptr inbounds i8, ptr %0, i64 8
  store i32 0, ptr %2, align 8
  %3 = getelementptr inbounds i8, ptr %0, i64 16
  store i64 0, ptr %3, align 8
  %4 = getelementptr inbounds i8, ptr %0, i64 24
  store i8 0, ptr %4, align 8
  %5 = getelementptr inbounds i8, ptr %0, i64 25
  store i8 1, ptr %5, align 1
  %6 = getelementptr inbounds i8, ptr %0, i64 28
  store i32 1, ptr %6, align 4
  %7 = getelementptr inbounds i8, ptr %0, i64 32
  store float 0.000000e+00, ptr %7, align 8
  store ptr getelementptr inbounds ({ [24 x ptr] }, ptr @_ZTVN5faiss11IndexRefineE, i64 0, i32 0, i64 2), ptr %0, align 8
  %8 = getelementptr inbounds i8, ptr %0, i64 40
  %9 = getelementptr inbounds i8, ptr %0, i64 60
  tail call void @llvm.memset.p0.i64(ptr noundef nonnull align 8 dereferenceable(18) %8, i8 0, i64 18, i1 false)
  store float 1.000000e+00, ptr %9, align 4
  ret void
}